cnumpy.core.multiarray
_reconstruct
p0
(cnumpy
ndarray
p1
(I0
tp2
S'b'
p3
tp4
Rp5
(I1
(I23
tp6
cnumpy
dtype
p7
(S'O8'
p8
I0
I1
tp9
Rp10
(I3
S'|'
p11
NNNI-1
I-1
I63
tp12
bI00
(lp13
S'poi'
p14
aS'salary'
p15
aS'deferral_payments'
p16
aS'total_payments'
p17
aS'loan_advances'
p18
aS'bonus'
p19
aS'restricted_stock_deferred'
p20
aS'deferred_income'
p21
aS'total_stock_value'
p22
aS'expenses'
p23
aS'exercised_stock_options'
p24
aS'other'
p25
aS'long_term_incentive'
p26
aS'restricted_stock'
p27
aS'director_fees'
p28
aS'to_messages'
p29
aS'from_poi_to_this_person'
p30
aS'from_messages'
p31
aS'from_this_person_to_poi'
p32
aS'shared_receipt_with_poi'
p33
aS'received_from_poi_ratio'
p34
aS'sent_to_poi_ratio'
p35
aS'shared_receipt_with_poi_ratio'
p36
atp37
b.